(dp0
S'!'
p1
F4.905535897260058e-05
sS' '
p2
F0.17001085725240933
sS','
p3
F0.016373978034211607
sS'.'
p4
F0.015927474154583447
sS'?'
p5
F9.96124126076277e-05
sS'a'
p6
F0.06569663865672411
sS'c'
p7
F0.024743422952802237
sS'b'
p8
F0.0133115220526364
sS'e'
p9
F0.09931958214845453
sS'd'
p10
F0.033178441871652156
sS'g'
p11
F0.01429162810231346
sS'f'
p12
F0.018790204746055923
sS'i'
p13
F0.05405600219848099
sS'h'
p14
F0.042913928368163476
sS'k'
p15
F0.004992634187680798
sS'j'
p16
F0.0033667994331603216
sS'm'
p17
F0.020844523044255443
sS'l'
p18
F0.03173431217128529
sS'o'
p19
F0.059905603473519864
sS'n'
p20
F0.0574167948529916
sS'q'
p21
F0.0006912801096036877
sS'p'
p22
F0.014889302577959227
sS's'
p23
F0.0506251304597238
sS'r'
p24
F0.05408103044285476
sS'u'
p25
F0.019442941359323996
sS't'
p26
F0.07091002195978162
sS'w'
p27
F0.018154987903849493
sS'v'
p28
F0.007417871067499674
sS'y'
p29
F0.014897311616158836
sS'x'
p30
F0.001132778340357093
sS'z'
p31
F0.0007343286899265821
s.