(dp0
S'a'
p1
(lp2
I703
aI654
aI683
aI616
aI119
aI161
aI966
aI723
asS'l'
p3
(lp4
I671
aI788
aI213
aI513
asS'n'
p5
(lp6
I306
aI835
aI118
aI576
aI598
aI984
asS'!'
p7
(lp8
I564
asS' '
p9
(lp10
I797
aI185
aI978
aI116
aI883
aI434
aI224
aI133
aI154
aI428
asS'c'
p11
(lp12
I567
aI660
aI958
asS'b'
p13
(lp14
I867
aI431
asS'e'
p15
(lp16
I570
aI810
aI554
aI353
aI870
aI724
aI366
aI376
aI766
aI535
aI110
aI253
asS'd'
p17
(lp18
I114
aI520
aI917
aI319
asS'g'
p19
(lp20
I912
aI856
asS'f'
p21
(lp22
I553
aI203
asS'i'
p23
(lp24
I698
aI624
aI344
aI639
aI351
aI646
asS'h'
p25
(lp26
I487
aI590
aI694
aI906
aI201
aI837
asS'k'
p27
(lp28
I207
asS'j'
p29
(lp30
I778
asS'm'
p31
(lp32
I859
aI270
asS','
p33
(lp34
I777
aI652
aI805
aI898
aI126
asS'o'
p35
(lp36
I248
aI379
aI696
aI638
aI390
aI894
aI727
asS'.'
p37
(lp38
I885
aI697
aI132
aI593
aI233
aI250
asS'q'
p39
(lp40
I427
asS'p'
p41
(lp42
I921
aI848
asS's'
p43
(lp44
I787
aI818
aI538
aI704
aI247
aI375
asS'r'
p45
(lp46
I969
aI709
aI377
aI728
aI485
aI444
asS'u'
p47
(lp48
I373
aI408
aI905
asS't'
p49
(lp50
I588
aI189
aI823
aI886
aI516
aI806
aI656
aI648
asS'w'
p51
(lp52
I437
aI963
asS'v'
p53
(lp54
I510
asS'y'
p55
(lp56
I695
aI585
asS'x'
p57
(lp58
I365
asS'z'
p59
(lp60
I446
asS'?'
p61
(lp62
I573
as.