(dp0
S'a'
p1
(lp2
I561
aI596
aI250
aI947
aI262
aI883
aI223
aI416
asS'l'
p3
(lp4
I942
aI287
aI805
aI199
asS'n'
p5
(lp6
I465
aI208
aI666
aI297
aI861
aI111
asS'!'
p7
(lp8
I337
asS' '
p9
(lp10
I434
aI641
aI152
aI474
aI306
aI552
aI120
aI831
aI788
aI764
asS'c'
p11
(lp12
I451
aI918
aI615
asS'b'
p13
(lp14
I249
aI342
asS'e'
p15
(lp16
I282
aI379
aI459
aI323
aI822
aI444
aI720
aI565
aI174
aI799
aI509
aI425
asS'd'
p17
(lp18
I328
aI222
aI141
aI399
asS'g'
p19
(lp20
I147
aI857
asS'f'
p21
(lp22
I691
aI193
asS'i'
p23
(lp24
I126
aI548
aI562
aI362
aI232
aI489
asS'h'
p25
(lp26
I129
aI468
aI305
aI879
aI352
aI731
asS'k'
p27
(lp28
I221
asS'j'
p29
(lp30
I173
asS'm'
p31
(lp32
I153
aI417
asS','
p33
(lp34
I956
aI990
aI896
aI629
aI986
asS'o'
p35
(lp36
I526
aI875
aI116
aI375
aI584
aI413
aI821
asS'.'
p37
(lp38
I939
aI657
aI742
aI656
aI544
aI504
asS'q'
p39
(lp40
I738
asS'p'
p41
(lp42
I293
aI244
asS's'
p43
(lp44
I553
aI300
aI632
aI659
aI442
aI741
asS'r'
p45
(lp46
I988
aI158
aI739
aI216
aI245
aI662
asS'u'
p47
(lp48
I194
aI430
aI767
asS't'
p49
(lp50
I404
aI823
aI869
aI681
aI746
aI163
aI225
aI652
asS'w'
p51
(lp52
I753
aI647
asS'v'
p53
(lp54
I301
asS'y'
p55
(lp56
I919
aI772
asS'x'
p57
(lp58
I547
asS'z'
p59
(lp60
I556
asS'?'
p61
(lp62
I976
as.