(dp0
S'a'
p1
S'q'
p2
sS'l'
p3
S's'
p4
sS'n'
p5
S'p'
p6
sS'!'
p7
S'i'
p8
sS' '
p9
g7
sS'c'
p10
g3
sS'b'
p11
S'm'
p12
sS'e'
p13
S'.'
p14
sS'd'
p15
S'o'
p16
sS'g'
p17
S'u'
p18
sS'f'
p19
S'y'
p20
sg8
S't'
p21
sS'h'
p22
g22
sS'k'
p23
S'x'
p24
sS'j'
p25
g23
sg12
g1
sS','
p26
g15
sg16
g26
sg14
g13
sg2
S'r'
p27
sg6
S'w'
p28
sg4
g11
sg27
S'z'
p29
sg18
S'?'
p30
sg21
g9
sg28
g10
sS'v'
p31
g17
sg20
g5
sg24
g25
sg29
g31
sg30
g19
s.