(dp0
S'a'
p1
S'r'
p2
sS'l'
p3
S'q'
p4
sS'n'
p5
S's'
p6
sS'!'
p7
S'j'
p8
sS' '
p9
g9
sS'c'
p10
S'd'
p11
sS'b'
p12
g7
sS'e'
p13
S'v'
p14
sg11
g1
sS'g'
p15
S'h'
p16
sS'f'
p17
S'?'
p18
sS'i'
p19
g10
sg16
S'k'
p20
sg20
S'.'
p21
sg8
S'u'
p22
sS'm'
p23
g15
sS','
p24
g24
sS'o'
p25
g3
sg21
S't'
p26
sg4
g12
sS'p'
p27
g27
sg6
S'w'
p28
sg2
g17
sg22
g5
sg26
g25
sg28
S'y'
p29
sg14
g19
sg29
g13
sS'x'
p30
g23
sS'z'
p31
g30
sg18
g31
s.