(dp0
S'a'
p1
S'i'
p2
sS'l'
p3
S'v'
p4
sS'n'
p5
g1
sS'!'
p6
S'u'
p7
sS' '
p8
S'j'
p9
sS'c'
p10
S'?'
p11
sS'b'
p12
S'o'
p13
sS'e'
p14
S'x'
p15
sS'd'
p16
g10
sS'g'
p17
g14
sS'f'
p18
g18
sg2
S','
p19
sS'h'
p20
g5
sS'k'
p21
g20
sg9
S'q'
p22
sS'm'
p23
g8
sg19
S'y'
p24
sg13
S's'
p25
sS'.'
p26
g26
sg22
S'w'
p27
sS'p'
p28
g21
sg25
S'r'
p29
sg29
g17
sg7
S'z'
p30
sS't'
p31
g28
sg27
g31
sg4
g12
sg24
g16
sg15
g3
sg30
g6
sg11
g23
s.