(dp0
S'a'
p1
S'v'
p2
sS'l'
p3
S'h'
p4
sS'n'
p5
S','
p6
sS'!'
p7
g1
sS' '
p8
S'b'
p9
sS'c'
p10
S'q'
p11
sg9
S'w'
p12
sS'e'
p13
S'?'
p14
sS'd'
p15
S'k'
p16
sS'g'
p17
S'z'
p18
sS'f'
p19
g19
sS'i'
p20
S's'
p21
sg4
S'y'
p22
sg16
g10
sS'j'
p23
g3
sS'm'
p24
g24
sg6
S'o'
p25
sg25
S'x'
p26
sS'.'
p27
g15
sg11
g13
sS'p'
p28
g7
sg21
g17
sS'r'
p29
g29
sS'u'
p30
g20
sS't'
p31
g5
sg12
g31
sg2
g8
sg22
g23
sg26
g27
sg18
g28
sg14
g30
s.