(dp0
S'a'
p1
S'.'
p2
sS'l'
p3
S'd'
p4
sS'n'
p5
S'k'
p6
sS'!'
p7
S'?'
p8
sS' '
p9
S'o'
p10
sS'c'
p11
S'e'
p12
sS'b'
p13
g3
sg12
S'w'
p14
sg4
S'p'
p15
sS'g'
p16
S'm'
p17
sS'f'
p18
g5
sS'i'
p19
S'j'
p20
sS'h'
p21
g21
sg6
g11
sg20
g1
sg17
g7
sS','
p22
S'r'
p23
sg10
S'x'
p24
sg2
S's'
p25
sS'q'
p26
g16
sg15
g22
sg25
g13
sg23
S'v'
p27
sS'u'
p28
g9
sS't'
p29
g26
sg14
g19
sg27
S'y'
p30
sg30
S'z'
p31
sg24
g29
sg31
g28
sg8
g18
s.