(dp0
S'a'
p1
S'x'
p2
sS'l'
p3
S'n'
p4
sg4
S'c'
p5
sS'!'
p6
S'h'
p7
sS' '
p8
g1
sg5
S't'
p9
sS'b'
p10
S'r'
p11
sS'e'
p12
S'z'
p13
sS'd'
p14
g14
sS'g'
p15
S'k'
p16
sS'f'
p17
S'.'
p18
sS'i'
p19
S','
p20
sg7
g17
sg16
S'o'
p21
sS'j'
p22
S'w'
p23
sS'm'
p24
S'u'
p25
sg20
g22
sg21
g8
sg18
g10
sS'q'
p26
g12
sS'p'
p27
S'y'
p28
sS's'
p29
g29
sg11
g27
sg25
g15
sg9
g6
sg23
S'v'
p30
sg30
g26
sg28
S'?'
p31
sg2
g3
sg13
g24
sg31
g19
s.