(lp0
(dp1
S'!'
p2
S'i'
p3
sS' '
p4
S'p'
p5
sS','
p6
S'b'
p7
sS'.'
p8
S'w'
p9
sS'?'
p10
S'm'
p11
sS'a'
p12
g8
sS'c'
p13
S'f'
p14
sg7
g4
sS'e'
p15
g12
sS'd'
p16
g15
sS'g'
p17
S'q'
p18
sg14
g16
sg3
S'z'
p19
sS'h'
p20
g10
sS'k'
p21
S't'
p22
sS'j'
p23
S'x'
p24
sg11
g21
sS'l'
p25
S'r'
p26
sS'o'
p27
g23
sS'n'
p28
g25
sg18
g17
sg5
g28
sS's'
p29
g29
sg26
S'v'
p30
sS'u'
p31
g31
sg22
g27
sg9
S'y'
p32
sg30
g13
sg32
g20
sg24
g2
sg19
g6
sa(dp33
g2
g22
sg4
g19
sg6
g6
sg8
g30
sg10
g32
sg12
g4
sg13
g9
sg7
g31
sg15
g28
sg16
g10
sg17
g26
sg14
g18
sg3
g17
sg20
g24
sg21
g14
sg23
g13
sg11
g11
sg25
g23
sg27
g21
sg28
g3
sg18
g27
sg5
g25
sg29
g29
sg26
g8
sg31
g7
sg22
g20
sg9
g5
sg30
g2
sg32
g12
sg24
g16
sg19
g15
sa(dp34
g2
g3
sg4
g16
sg6
g31
sg8
g10
sg10
g5
sg12
g32
sg13
g27
sg7
g11
sg15
g9
sg16
g25
sg17
g17
sg14
g26
sg3
g7
sg20
g14
sg21
g30
sg23
g21
sg11
g13
sg25
g20
sg27
g2
sg28
g18
sg18
g6
sg5
g23
sg29
g22
sg26
g8
sg31
g28
sg22
g15
sg9
g29
sg30
g24
sg32
g12
sg24
g19
sg19
g4
sa(dp35
g2
g24
sg4
g22
sg6
g29
sg8
g2
sg10
g16
sg12
g15
sg13
g28
sg7
g30
sg15
g14
sg16
g20
sg17
g31
sg14
g6
sg3
g8
sg20
g23
sg21
g5
sg23
g13
sg11
g4
sg25
g12
sg27
g32
sg28
g9
sg18
g7
sg5
g25
sg29
g27
sg26
g18
sg31
g17
sg22
g3
sg9
g10
sg30
g19
sg32
g26
sg24
g11
sg19
g21
sa(dp36
g2
g23
sg4
g11
sg6
g15
sg8
g4
sg10
g13
sg12
g21
sg13
g2
sg7
g28
sg15
g27
sg16
g24
sg17
g20
sg14
g25
sg3
g12
sg20
g17
sg21
g6
sg23
g22
sg11
g29
sg25
g19
sg27
g30
sg28
g26
sg18
g10
sg5
g5
sg29
g31
sg26
g3
sg31
g8
sg22
g7
sg9
g18
sg30
g9
sg32
g32
sg24
g16
sg19
g14
sa.